; Function Attrs: mustprogress uwtable
define dso_local noundef range(i32 -1, 1) i32 @_ZN24btInverseDynamicsBullet313MultiBodyTree19calculateMassMatrixERKNS_4vecxEbbbP9btMatrixXIfE(ptr noundef nonnull readonly align 8 captures(none) dereferenceable(24) %0, ptr noundef nonnull align 8 dereferenceable(32) %1, i1 noundef zeroext %2, i1 noundef zeroext %3, i1 noundef zeroext %4, ptr noundef %5) local_unnamed_addr #0 align 2 {
  %7 = load i8, ptr %0, align 8, !tbaa !4, !range !21, !noundef !22
  %8 = icmp eq i8 %7, 0
  br i1 %8, label %.sink.split, label %9

9:                                                ; preds = %6
  %10 = getelementptr inbounds nuw i8, ptr %0, i64 8
  %11 = load ptr, ptr %10, align 8, !tbaa !15
  %12 = tail call noundef i32 @_ZN24btInverseDynamicsBullet313MultiBodyTree13MultiBodyImpl19calculateMassMatrixERKNS_4vecxEbbbP9btMatrixXIfE(ptr noundef nonnull align 8 dereferenceable(400) %11, ptr noundef nonnull align 8 dereferenceable(32) %1, i1 noundef zeroext %2, i1 noundef zeroext %3, i1 noundef zeroext %4, ptr noundef %5)
  %13 = icmp eq i32 %12, -1
  br i1 %13, label %.sink.split, label %14

.sink.split:                                      ; preds = %9, %6
  %.sink = phi i32 [ 120, %6 ], [ 127, %9 ]
  %.str.4.sink = phi ptr [ @.str.2, %6 ], [ @.str.4, %9 ]
  tail call void (ptr, ...) @b3OutputErrorMessageVarArgsInternal(ptr noundef nonnull @.str, ptr noundef nonnull @.str.1, i32 noundef %.sink)
  tail call void (ptr, ...) @b3OutputErrorMessageVarArgsInternal(ptr noundef nonnull %.str.4.sink)
  br label %14

14:                                               ; preds = %.sink.split, %9
  %.0 = phi i32 [ 0, %9 ], [ -1, %.sink.split ]
  ret i32 %.0
}